; Function Attrs: mustprogress uwtable
define void @_ZN5boost4urls8url_viewC2ENS_4core17basic_string_viewIcEE(ptr noundef nonnull align 8 dereferenceable(192) %0, ptr %1, i64 %2) unnamed_addr #3 align 2 {
  %4 = alloca %"class.boost::urls::url_view", align 8
  %5 = alloca %"class.boost::system::result", align 8
  %6 = alloca %"struct.boost::source_location", align 8
  call void @llvm.lifetime.start.p0(i64 192, ptr nonnull %4) #17
  call void @llvm.lifetime.start.p0(i64 200, ptr nonnull %5) #17
  call void @_ZN5boost4urls19parse_uri_referenceENS_4core17basic_string_viewIcEE(ptr dead_on_unwind nonnull writable sret(%"class.boost::system::result") align 8 %5, ptr %1, i64 %2)
  call void @llvm.lifetime.start.p0(i64 24, ptr nonnull %6) #17
  store ptr @.str, ptr %6, align 8, !tbaa !3
  %7 = getelementptr inbounds nuw i8, ptr %6, i64 8
  store ptr @.str.1, ptr %7, align 8, !tbaa !9
  %8 = getelementptr inbounds nuw i8, ptr %6, i64 16
  store i32 39, ptr %8, align 8, !tbaa !10
  %9 = getelementptr inbounds nuw i8, ptr %6, i64 20
  store i32 17, ptr %9, align 4, !tbaa !11
  call void @llvm.experimental.noalias.scope.decl(metadata !12)
  %10 = getelementptr inbounds nuw i8, ptr %5, i64 192
  %11 = load i32, ptr %10, align 8, !tbaa !15, !noalias !12
  %12 = icmp eq i32 %11, 1
  br i1 %12, label %_ZNR5boost6system6resultINS_4urls8url_viewENS0_10error_codeEE5valueERKNS_15source_locationE.exit.i, label %13

13:                                               ; preds = %3
  call void @_ZN5boost6system26throw_exception_from_errorERKNS0_10error_codeERKNS_15source_locationE(ptr noundef nonnull align 8 dereferenceable(200) %5, ptr noundef nonnull align 8 dereferenceable(24) %6) #18, !noalias !12
  unreachable

_ZNR5boost6system6resultINS_4urls8url_viewENS0_10error_codeEE5valueERKNS_15source_locationE.exit.i: ; preds = %3
  %14 = getelementptr inbounds nuw i8, ptr %5, i64 8
  call void @_ZN5boost4urls13url_view_baseC2ERKNS0_6detail8url_implE(ptr noundef nonnull align 8 dereferenceable(192) %4, ptr noundef nonnull align 8 dereferenceable(171) %14) #17
  %15 = getelementptr inbounds nuw i8, ptr %5, i64 184
  %16 = load ptr, ptr %15, align 8, !tbaa !17, !noalias !12
  %17 = getelementptr inbounds nuw i8, ptr %16, i64 170
  %18 = load i8, ptr %17, align 2, !tbaa !25
  %19 = icmp eq i8 %18, 1
  br i1 %19, label %_ZNO5boost6system6resultINS_4urls8url_viewENS0_10error_codeEE5valueIS3_EENSt9enable_ifIXsr3std21is_move_constructibleIT_EE5valueES3_E4typeERKNS_15source_locationE.exit, label %20

20:                                               ; preds = %_ZNR5boost6system6resultINS_4urls8url_viewENS0_10error_codeEE5valueERKNS_15source_locationE.exit.i
  %21 = getelementptr inbounds nuw i8, ptr %4, i64 8
  call void @llvm.memcpy.p0.p0.i64(ptr noundef nonnull align 8 dereferenceable(171) %21, ptr noundef nonnull align 8 dereferenceable(171) %14, i64 171, i1 false)
  br label %_ZNO5boost6system6resultINS_4urls8url_viewENS0_10error_codeEE5valueIS3_EENSt9enable_ifIXsr3std21is_move_constructibleIT_EE5valueES3_E4typeERKNS_15source_locationE.exit

_ZNO5boost6system6resultINS_4urls8url_viewENS0_10error_codeEE5valueIS3_EENSt9enable_ifIXsr3std21is_move_constructibleIT_EE5valueES3_E4typeERKNS_15source_locationE.exit: ; preds = %_ZNR5boost6system6resultINS_4urls8url_viewENS0_10error_codeEE5valueERKNS_15source_locationE.exit.i, %20
  %.sink.i.i.i = phi ptr [ %21, %20 ], [ %16, %_ZNR5boost6system6resultINS_4urls8url_viewENS0_10error_codeEE5valueERKNS_15source_locationE.exit.i ]
  %22 = getelementptr inbounds nuw i8, ptr %4, i64 184
  store ptr %.sink.i.i.i, ptr %22, align 8, !alias.scope !12
  %23 = getelementptr inbounds nuw i8, ptr %4, i64 8
  call void @_ZN5boost4urls13url_view_baseC2ERKNS0_6detail8url_implE(ptr noundef nonnull align 8 dereferenceable(192) %0, ptr noundef nonnull align 8 dereferenceable(171) %23) #17
  %24 = load ptr, ptr %22, align 8, !tbaa !17
  %25 = getelementptr inbounds nuw i8, ptr %24, i64 170
  %26 = load i8, ptr %25, align 2, !tbaa !25
  %27 = icmp eq i8 %26, 1
  br i1 %27, label %_ZN5boost4urls8url_viewC2ERKS1_.exit, label %28

28:                                               ; preds = %_ZNO5boost6system6resultINS_4urls8url_viewENS0_10error_codeEE5valueIS3_EENSt9enable_ifIXsr3std21is_move_constructibleIT_EE5valueES3_E4typeERKNS_15source_locationE.exit
  %29 = getelementptr inbounds nuw i8, ptr %0, i64 8
  call void @llvm.memcpy.p0.p0.i64(ptr noundef nonnull align 8 dereferenceable(171) %29, ptr noundef nonnull align 8 dereferenceable(171) %23, i64 171, i1 false)
  br label %_ZN5boost4urls8url_viewC2ERKS1_.exit

_ZN5boost4urls8url_viewC2ERKS1_.exit:             ; preds = %_ZNO5boost6system6resultINS_4urls8url_viewENS0_10error_codeEE5valueIS3_EENSt9enable_ifIXsr3std21is_move_constructibleIT_EE5valueES3_E4typeERKNS_15source_locationE.exit, %28
  %.sink.i.i = phi ptr [ %29, %28 ], [ %24, %_ZNO5boost6system6resultINS_4urls8url_viewENS0_10error_codeEE5valueIS3_EENSt9enable_ifIXsr3std21is_move_constructibleIT_EE5valueES3_E4typeERKNS_15source_locationE.exit ]
  %30 = getelementptr inbounds nuw i8, ptr %0, i64 184
  store ptr %.sink.i.i, ptr %30, align 8
  call void @llvm.lifetime.end.p0(i64 24, ptr nonnull %6) #17
  call void @llvm.lifetime.end.p0(i64 200, ptr nonnull %5) #17
  call void @llvm.lifetime.end.p0(i64 192, ptr nonnull %4) #17
  ret void
}